; Function Attrs: mustprogress nofree norecurse nosync nounwind willreturn memory(argmem: read) uwtable
define ptr @PQerrorMessage(ptr noundef readonly captures(address_is_null) %0) local_unnamed_addr #14 {
  %.not = icmp eq ptr %0, null
  br i1 %.not, label %9, label %2

2:                                                ; preds = %1
  %3 = getelementptr inbounds nuw i8, ptr %0, i64 1136
  %4 = load i64, ptr %3, align 8
  %5 = icmp eq i64 %4, 0
  br i1 %5, label %9, label %6

6:                                                ; preds = %2
  %7 = getelementptr inbounds nuw i8, ptr %0, i64 1120
  %8 = load ptr, ptr %7, align 8
  br label %9

9:                                                ; preds = %2, %1, %6
  %.0 = phi ptr [ %8, %6 ], [ @.str.99, %1 ], [ @.str.100, %2 ]
  ret ptr %.0
}